; Function Attrs: mustprogress uwtable
define void @_ZNK6casadi12SparsityCast9get_nzrefERKNS_8SparsityERKSt6vectorIxSaIxEE(ptr dead_on_unwind noalias writable sret(%"class.casadi::MX") align 8 %0, ptr nocapture noundef nonnull readonly align 8 dereferenceable(64) %1, ptr noundef nonnull align 8 dereferenceable(8) %2, ptr noundef nonnull align 8 dereferenceable(24) %3) unnamed_addr #3 align 2 {
  %5 = getelementptr inbounds i8, ptr %1, i64 32
  %6 = getelementptr inbounds i8, ptr %1, i64 40
  %7 = load ptr, ptr %6, align 8
  %8 = load ptr, ptr %5, align 8
  %.not.i.i.i.not = icmp eq ptr %7, %8
  br i1 %.not.i.i.i.not, label %9, label %_ZNK6casadi6MXNode3depEx.exit

9:                                                ; preds = %4
  tail call void (ptr, ...) @_ZSt24__throw_out_of_range_fmtPKcz(ptr noundef nonnull @.str.14, i64 noundef 0, i64 noundef 0) #14
  unreachable

_ZNK6casadi6MXNode3depEx.exit:                    ; preds = %4
  tail call void @_ZN6casadi11GetNonzeros6createERKNS_8SparsityERKNS_2MXERKSt6vectorIxSaIxEE(ptr dead_on_unwind writable sret(%"class.casadi::MX") align 8 %0, ptr noundef nonnull align 8 dereferenceable(8) %2, ptr noundef nonnull align 8 dereferenceable(8) %8, ptr noundef nonnull align 8 dereferenceable(24) %3)
  ret void
}